target datalayout = "e-m:e-p270:32:32-p271:32:32-p272:64:64-i64:64-i128:128-f80:128-n8:16:32:64-S128"
target triple = "x86_64-pc-linux-gnu"

@hf_nas_5gs_mm_nssrg_info_len = internal global i32 0, align 4
@hf_nas_5gs_mm_nssrg_info_s_nssai_len = internal global i32 0, align 4
@hf_nas_5gs_mm_nssrg_info_nssrg = internal global i32 0, align 4
@ett_nas_5gs_mm_nssrg_info = internal global i32 0, align 4
@.str.1729 = private unnamed_addr constant [28 x i8] c"NSSRG values for S-NSSAI %u\00", align 1

; Function Attrs: null_pointer_is_valid sspstrong uwtable
define internal zeroext i16 @de_nas_5gs_mm_nssrg_info(ptr noundef %0, ptr noundef %1, ptr noundef %2, i32 noundef %3, i32 noundef %4, ptr noundef %5, i32 noundef %6) #0 {
  %8 = alloca ptr, align 8
  %9 = alloca ptr, align 8
  %10 = alloca ptr, align 8
  %11 = alloca i32, align 4
  %12 = alloca i32, align 4
  %13 = alloca ptr, align 8
  %14 = alloca i32, align 4
  %15 = alloca i32, align 4
  %16 = alloca i32, align 4
  %17 = alloca ptr, align 8
  %18 = alloca ptr, align 8
  %19 = alloca i32, align 4
  %20 = alloca i32, align 4
  %21 = alloca i32, align 4
  store ptr %0, ptr %8, align 8
  store ptr %1, ptr %9, align 8
  store ptr %2, ptr %10, align 8
  store i32 %3, ptr %11, align 4
  store i32 %4, ptr %12, align 4
  store ptr %5, ptr %13, align 8
  store i32 %6, ptr %14, align 4
  call void @llvm.lifetime.start.p0(i64 4, ptr %15) #11
  %22 = load i32, ptr %11, align 4
  store i32 %22, ptr %15, align 4
  call void @llvm.lifetime.start.p0(i64 4, ptr %16) #11
  store i32 1, ptr %16, align 4
  br label %23

23:                                               ; preds = %77, %7
  %24 = load i32, ptr %15, align 4
  %25 = load i32, ptr %11, align 4
  %26 = sub i32 %24, %25
  %27 = load i32, ptr %12, align 4
  %28 = icmp ult i32 %26, %27
  br i1 %28, label %29, label %80

29:                                               ; preds = %23
  call void @llvm.lifetime.start.p0(i64 8, ptr %17) #11
  call void @llvm.lifetime.start.p0(i64 8, ptr %18) #11
  call void @llvm.lifetime.start.p0(i64 4, ptr %19) #11
  call void @llvm.lifetime.start.p0(i64 4, ptr %20) #11
  call void @llvm.lifetime.start.p0(i64 4, ptr %21) #11
  %30 = load ptr, ptr %9, align 8
  %31 = load ptr, ptr %8, align 8
  %32 = load i32, ptr %15, align 4
  %33 = load i32, ptr @ett_nas_5gs_mm_nssrg_info, align 4
  %34 = load i32, ptr %16, align 4
  %35 = call ptr (ptr, ptr, i32, i32, i32, ptr, ptr, ...) @proto_tree_add_subtree_format(ptr noundef %30, ptr noundef %31, i32 noundef %32, i32 noundef -1, i32 noundef %33, ptr noundef %17, ptr noundef @.str.1729, i32 noundef %34)
  store ptr %35, ptr %18, align 8
  %36 = load ptr, ptr %18, align 8
  %37 = load i32, ptr @hf_nas_5gs_mm_nssrg_info_len, align 4
  %38 = load ptr, ptr %8, align 8
  %39 = load i32, ptr %15, align 4
  %40 = call ptr @proto_tree_add_item_ret_uint(ptr noundef %36, i32 noundef %37, ptr noundef %38, i32 noundef %39, i32 noundef 1, i32 noundef 0, ptr noundef %20)
  %41 = load i32, ptr %15, align 4
  %42 = add i32 %41, 1
  store i32 %42, ptr %15, align 4
  %43 = load ptr, ptr %17, align 8
  %44 = load i32, ptr %20, align 4
  %45 = add i32 %44, 1
  call void @proto_item_set_len(ptr noundef %43, i32 noundef %45)
  %46 = load i32, ptr %15, align 4
  store i32 %46, ptr %19, align 4
  %47 = load ptr, ptr %18, align 8
  %48 = load i32, ptr @hf_nas_5gs_mm_nssrg_info_s_nssai_len, align 4
  %49 = load ptr, ptr %8, align 8
  %50 = load i32, ptr %15, align 4
  %51 = call ptr @proto_tree_add_item_ret_uint(ptr noundef %47, i32 noundef %48, ptr noundef %49, i32 noundef %50, i32 noundef 1, i32 noundef 0, ptr noundef %21)
  %52 = load i32, ptr %15, align 4
  %53 = add i32 %52, 1
  store i32 %53, ptr %15, align 4
  %54 = load ptr, ptr %8, align 8
  %55 = load ptr, ptr %18, align 8
  %56 = load ptr, ptr %10, align 8
  %57 = load i32, ptr %15, align 4
  %58 = load i32, ptr %21, align 4
  %59 = call zeroext i16 @de_nas_5gs_cmn_s_nssai(ptr noundef %54, ptr noundef %55, ptr noundef %56, i32 noundef %57, i32 noundef %58, ptr noundef null, i32 noundef 0)
  %60 = zext i16 %59 to i32
  %61 = load i32, ptr %15, align 4
  %62 = add i32 %61, %60
  store i32 %62, ptr %15, align 4
  br label %63

63:                                               ; preds = %69, %29
  %64 = load i32, ptr %15, align 4
  %65 = load i32, ptr %19, align 4
  %66 = sub i32 %64, %65
  %67 = load i32, ptr %20, align 4
  %68 = icmp ult i32 %66, %67
  br i1 %68, label %69, label %77

69:                                               ; preds = %63
  %70 = load ptr, ptr %18, align 8
  %71 = load i32, ptr @hf_nas_5gs_mm_nssrg_info_nssrg, align 4
  %72 = load ptr, ptr %8, align 8
  %73 = load i32, ptr %15, align 4
  %74 = call ptr @proto_tree_add_item(ptr noundef %70, i32 noundef %71, ptr noundef %72, i32 noundef %73, i32 noundef 1, i32 noundef 0)
  %75 = load i32, ptr %15, align 4
  %76 = add i32 %75, 1
  store i32 %76, ptr %15, align 4
  br label %63, !llvm.loop !41

77:                                               ; preds = %63
  %78 = load i32, ptr %16, align 4
  %79 = add i32 %78, 1
  store i32 %79, ptr %16, align 4
  call void @llvm.lifetime.end.p0(i64 4, ptr %21) #11
  call void @llvm.lifetime.end.p0(i64 4, ptr %20) #11
  call void @llvm.lifetime.end.p0(i64 4, ptr %19) #11
  call void @llvm.lifetime.end.p0(i64 8, ptr %18) #11
  call void @llvm.lifetime.end.p0(i64 8, ptr %17) #11
  br label %23, !llvm.loop !42

80:                                               ; preds = %23
  %81 = load i32, ptr %12, align 4
  %82 = trunc i32 %81 to i16
  call void @llvm.lifetime.end.p0(i64 4, ptr %16) #11
  call void @llvm.lifetime.end.p0(i64 4, ptr %15) #11
  ret i16 %82
}