; Function Attrs: null_pointer_is_valid sspstrong uwtable
define internal noundef zeroext i16 @de_nas_5gs_mm_nssrg_info(ptr noundef %0, ptr noundef %1, ptr readnone captures(none) %2, i32 noundef %3, i32 noundef %4, ptr readnone captures(none) %5, i32 %6) #0 {
  %8 = alloca ptr, align 8
  %9 = alloca i32, align 4
  %10 = alloca i32, align 4
  %.not = icmp eq i32 %4, 0
  br i1 %.not, label %._crit_edge36, label %.lr.ph35

.lr.ph35:                                         ; preds = %7, %._crit_edge
  %.033 = phi i32 [ %.1.lcssa, %._crit_edge ], [ %3, %7 ]
  %.02932 = phi i32 [ %35, %._crit_edge ], [ 1, %7 ]
  call void @llvm.lifetime.start.p0(i64 8, ptr nonnull %8) #12
  call void @llvm.lifetime.start.p0(i64 4, ptr nonnull %9) #12
  call void @llvm.lifetime.start.p0(i64 4, ptr nonnull %10) #12
  %11 = load i32, ptr @ett_nas_5gs_mm_nssrg_info, align 4
  %12 = call ptr (ptr, ptr, i32, i32, i32, ptr, ptr, ...) @proto_tree_add_subtree_format(ptr noundef %1, ptr noundef %0, i32 noundef %.033, i32 noundef -1, i32 noundef %11, ptr noundef nonnull %8, ptr noundef nonnull @.str.1729, i32 noundef %.02932)
  %13 = load i32, ptr @hf_nas_5gs_mm_nssrg_info_len, align 4
  %14 = call ptr @proto_tree_add_item_ret_uint(ptr noundef %12, i32 noundef %13, ptr noundef %0, i32 noundef %.033, i32 noundef 1, i32 noundef 0, ptr noundef nonnull %9)
  %15 = add i32 %.033, 1
  %16 = load ptr, ptr %8, align 8
  %17 = load i32, ptr %9, align 4
  %18 = add i32 %17, 1
  call void @proto_item_set_len(ptr noundef %16, i32 noundef %18)
  %19 = load i32, ptr @hf_nas_5gs_mm_nssrg_info_s_nssai_len, align 4
  %20 = call ptr @proto_tree_add_item_ret_uint(ptr noundef %12, i32 noundef %19, ptr noundef %0, i32 noundef %15, i32 noundef 1, i32 noundef 0, ptr noundef nonnull %10)
  %21 = add i32 %.033, 2
  %22 = load i32, ptr %10, align 4
  %23 = call zeroext i16 @de_nas_5gs_cmn_s_nssai(ptr noundef %0, ptr noundef %12, ptr poison, i32 noundef %21, i32 noundef %22, ptr poison, i32 poison)
  %24 = zext i16 %23 to i32
  %25 = add i32 %21, %24
  %26 = sub i32 %25, %15
  %27 = load i32, ptr %9, align 4
  %28 = icmp ult i32 %26, %27
  br i1 %28, label %.lr.ph, label %._crit_edge

.lr.ph:                                           ; preds = %.lr.ph35, %.lr.ph
  %.131 = phi i32 [ %31, %.lr.ph ], [ %25, %.lr.ph35 ]
  %29 = load i32, ptr @hf_nas_5gs_mm_nssrg_info_nssrg, align 4
  %30 = call ptr @proto_tree_add_item(ptr noundef %12, i32 noundef %29, ptr noundef %0, i32 noundef %.131, i32 noundef 1, i32 noundef 0)
  %31 = add i32 %.131, 1
  %32 = sub i32 %.131, %.033
  %33 = load i32, ptr %9, align 4
  %34 = icmp ult i32 %32, %33
  br i1 %34, label %.lr.ph, label %._crit_edge, !llvm.loop !41

._crit_edge:                                      ; preds = %.lr.ph, %.lr.ph35
  %.1.lcssa = phi i32 [ %25, %.lr.ph35 ], [ %31, %.lr.ph ]
  %35 = add i32 %.02932, 1
  call void @llvm.lifetime.end.p0(i64 4, ptr nonnull %10) #12
  call void @llvm.lifetime.end.p0(i64 4, ptr nonnull %9) #12
  call void @llvm.lifetime.end.p0(i64 8, ptr nonnull %8) #12
  %36 = sub i32 %.1.lcssa, %3
  %37 = icmp ult i32 %36, %4
  br i1 %37, label %.lr.ph35, label %._crit_edge36, !llvm.loop !42

._crit_edge36:                                    ; preds = %._crit_edge, %7
  %38 = trunc i32 %4 to i16
  ret i16 %38
}